; Function Attrs: nounwind uwtable
define internal fastcc i32 @r_Suffix_Noun_Step2b(ptr noundef initializes((24, 28)) %0) unnamed_addr #0 {
  %2 = getelementptr inbounds nuw i8, ptr %0, i64 8
  %3 = load i32, ptr %2, align 8
  %4 = getelementptr inbounds nuw i8, ptr %0, i64 24
  store i32 %3, ptr %4, align 8
  %5 = add i32 %3, -3
  %6 = getelementptr inbounds nuw i8, ptr %0, i64 16
  %7 = load i32, ptr %6, align 8
  %.not = icmp sgt i32 %5, %7
  br i1 %.not, label %8, label %25

8:                                                ; preds = %1
  %9 = load ptr, ptr %0, align 8
  %10 = add i32 %3, -1
  %11 = sext i32 %10 to i64
  %12 = getelementptr inbounds i8, ptr %9, i64 %11
  %13 = load i8, ptr %12, align 1
  %.not15 = icmp eq i8 %13, -86
  br i1 %.not15, label %14, label %25

14:                                               ; preds = %8
  %15 = tail call i32 @find_among_b(ptr noundef nonnull %0, ptr noundef nonnull @a_13, i32 noundef 1) #2
  %.not16 = icmp eq i32 %15, 0
  br i1 %.not16, label %25, label %16

16:                                               ; preds = %14
  %17 = load i32, ptr %2, align 8
  %18 = getelementptr inbounds nuw i8, ptr %0, i64 20
  store i32 %17, ptr %18, align 4
  %19 = load ptr, ptr %0, align 8
  %20 = tail call i32 @len_utf8(ptr noundef %19) #2
  %21 = icmp sgt i32 %20, 4
  br i1 %21, label %22, label %25

22:                                               ; preds = %16
  %23 = tail call i32 @slice_del(ptr noundef nonnull %0) #2
  %24 = icmp sgt i32 %23, -1
  %spec.select = select i1 %24, i32 1, i32 %23
  br label %25

25:                                               ; preds = %22, %16, %14, %1, %8
  %.014 = phi i32 [ 0, %8 ], [ 0, %1 ], [ 0, %14 ], [ 0, %16 ], [ %spec.select, %22 ]
  ret i32 %.014
}